target datalayout = "e-m:e-p270:32:32-p271:32:32-p272:64:64-i64:64-i128:128-f80:128-n8:16:32:64-S128"
target triple = "x86_64-pc-linux-gnu"

%struct._win_st = type { i16, i16, i16, i16, i16, i16, i16, i32, i32, i8, i8, i8, i8, i8, i8, i8, i8, i8, i32, ptr, i16, i16, i32, i32, ptr, %struct.pdat, i16, %struct.cchar_t, i32 }
%struct.pdat = type { i16, i16, i16, i16, i16, i16 }
%struct.cchar_t = type { i32, [5 x i32], i32 }

@stdscr = external global ptr, align 8
@status_bar_window = internal global ptr null, align 8
@header_window = internal global ptr null, align 8
@mem_window = internal global ptr null, align 8
@stats_window = internal global ptr null, align 8
@stats_head_window = internal global ptr null, align 8
@maxx = internal global i32 0, align 4
@maxy = internal global i32 0, align 4
@maxystats = internal global i32 0, align 4
@status_bar_keys = internal global [10 x ptr] zeroinitializer, align 16
@.str.121 = private unnamed_addr constant [9 x i8] c"H - help\00", align 1
@.str.122 = private unnamed_addr constant [9 x i8] c"Q - quit\00", align 1
@.str.123 = private unnamed_addr constant [19 x i8] c"R - reset maximums\00", align 1
@.str.124 = private unnamed_addr constant [19 x i8] c"^ - previous clamd\00", align 1
@.str.125 = private unnamed_addr constant [15 x i8] c"v - next clamd\00", align 1

; Function Attrs: nounwind uwtable
define internal void @rm_windows() #0 {
  %1 = load ptr, ptr @header_window, align 8
  %2 = icmp ne ptr %1, null
  br i1 %2, label %3, label %6

3:                                                ; preds = %0
  %4 = load ptr, ptr @header_window, align 8
  %5 = call i32 @delwin(ptr noundef %4)
  store ptr null, ptr @header_window, align 8
  br label %6

6:                                                ; preds = %3, %0
  %7 = load ptr, ptr @mem_window, align 8
  %8 = icmp ne ptr %7, null
  br i1 %8, label %9, label %12

9:                                                ; preds = %6
  %10 = load ptr, ptr @mem_window, align 8
  %11 = call i32 @delwin(ptr noundef %10)
  store ptr null, ptr @mem_window, align 8
  br label %12

12:                                               ; preds = %9, %6
  %13 = load ptr, ptr @stats_window, align 8
  %14 = icmp ne ptr %13, null
  br i1 %14, label %15, label %18

15:                                               ; preds = %12
  %16 = load ptr, ptr @stats_window, align 8
  %17 = call i32 @delwin(ptr noundef %16)
  store ptr null, ptr @stats_window, align 8
  br label %18

18:                                               ; preds = %15, %12
  %19 = load ptr, ptr @stats_head_window, align 8
  %20 = icmp ne ptr %19, null
  br i1 %20, label %21, label %24

21:                                               ; preds = %18
  %22 = load ptr, ptr @stats_head_window, align 8
  %23 = call i32 @delwin(ptr noundef %22)
  store ptr null, ptr @stats_head_window, align 8
  br label %24

24:                                               ; preds = %21, %18
  %25 = load ptr, ptr @status_bar_window, align 8
  %26 = icmp ne ptr %25, null
  br i1 %26, label %27, label %30

27:                                               ; preds = %24
  %28 = load ptr, ptr @status_bar_window, align 8
  %29 = call i32 @delwin(ptr noundef %28)
  store ptr null, ptr @status_bar_window, align 8
  br label %30

30:                                               ; preds = %27, %24
  ret void
}

; Function Attrs: nounwind uwtable
define internal void @init_windows(i32 noundef %0) #0 {
  %2 = alloca i32, align 4
  store i32 %0, ptr %2, align 4
  call void @resize()
  call void @rm_windows()
  %3 = load ptr, ptr @stdscr, align 8
  %4 = load i32, ptr @maxx, align 4
  %5 = call ptr @subwin(ptr noundef %3, i32 noundef 1, i32 noundef %4, i32 noundef 0, i32 noundef 0)
  store ptr %5, ptr @header_window, align 8
  %6 = load ptr, ptr @stdscr, align 8
  %7 = load i32, ptr %2, align 4
  %8 = add nsw i32 %7, 1
  %9 = load i32, ptr @maxx, align 4
  %10 = call ptr @subwin(ptr noundef %6, i32 noundef %8, i32 noundef %9, i32 noundef 1, i32 noundef 0)
  store ptr %10, ptr @stats_head_window, align 8
  %11 = load i32, ptr @maxy, align 4
  %12 = load i32, ptr %2, align 4
  %13 = sub i32 %11, %12
  %14 = sub i32 %13, 3
  store i32 %14, ptr @maxystats, align 4
  %15 = load ptr, ptr @stdscr, align 8
  %16 = load i32, ptr @maxystats, align 4
  %17 = load i32, ptr @maxx, align 4
  %18 = load i32, ptr %2, align 4
  %19 = add nsw i32 %18, 2
  %20 = call ptr @subwin(ptr noundef %15, i32 noundef %16, i32 noundef %17, i32 noundef %19, i32 noundef 0)
  store ptr %20, ptr @stats_window, align 8
  %21 = load ptr, ptr @stdscr, align 8
  %22 = load i32, ptr @maxx, align 4
  %23 = load i32, ptr @maxy, align 4
  %24 = sub i32 %23, 1
  %25 = call ptr @subwin(ptr noundef %21, i32 noundef 1, i32 noundef %22, i32 noundef %24, i32 noundef 0)
  store ptr %25, ptr @status_bar_window, align 8
  %26 = load ptr, ptr @stats_window, align 8
  %27 = load i32, ptr @maxx, align 4
  %28 = sub i32 %27, 41
  %29 = call ptr @derwin(ptr noundef %26, i32 noundef 6, i32 noundef 41, i32 noundef 1, i32 noundef %28)
  store ptr %29, ptr @mem_window, align 8
  %30 = load ptr, ptr @stdscr, align 8
  %31 = load ptr, ptr @stdscr, align 8
  %32 = icmp ne ptr null, %31
  br i1 %32, label %33, label %39

33:                                               ; preds = %1
  %34 = load ptr, ptr @stdscr, align 8
  %35 = getelementptr inbounds %struct._win_st, ptr %34, i32 0, i32 2
  %36 = load i16, ptr %35, align 4
  %37 = sext i16 %36 to i32
  %38 = add nsw i32 %37, 1
  br label %40

39:                                               ; preds = %1
  br label %40

40:                                               ; preds = %39, %33
  %41 = phi i32 [ %38, %33 ], [ -1, %39 ]
  %42 = call i32 @wtouchln(ptr noundef %30, i32 noundef 0, i32 noundef %41, i32 noundef 1)
  %43 = load ptr, ptr @stdscr, align 8
  %44 = call i32 @werase(ptr noundef %43)
  %45 = load ptr, ptr @stdscr, align 8
  %46 = call i32 @wrefresh(ptr noundef %45)
  call void @llvm.memset.p0.i64(ptr align 16 @status_bar_keys, i8 0, i64 80, i1 false)
  store ptr @.str.121, ptr @status_bar_keys, align 16
  store ptr @.str.122, ptr getelementptr inbounds ([10 x ptr], ptr @status_bar_keys, i64 0, i64 1), align 8
  store ptr @.str.123, ptr getelementptr inbounds ([10 x ptr], ptr @status_bar_keys, i64 0, i64 2), align 16
  %47 = load i32, ptr %2, align 4
  %48 = icmp sgt i32 %47, 1
  br i1 %48, label %49, label %50

49:                                               ; preds = %40
  store ptr @.str.124, ptr getelementptr inbounds ([10 x ptr], ptr @status_bar_keys, i64 0, i64 3), align 8
  store ptr @.str.125, ptr getelementptr inbounds ([10 x ptr], ptr @status_bar_keys, i64 0, i64 4), align 16
  br label %50

50:                                               ; preds = %49, %40
  ret void
}