; Function Attrs: nounwind uwtable
define internal fastcc void @init_windows(i32 noundef %0) unnamed_addr #0 {
  tail call fastcc void @resize()
  %2 = load ptr, ptr @header_window, align 8
  %.not.i = icmp eq ptr %2, null
  br i1 %.not.i, label %5, label %3

3:                                                ; preds = %1
  %4 = tail call i32 @delwin(ptr noundef nonnull %2) #25
  store ptr null, ptr @header_window, align 8
  br label %5

5:                                                ; preds = %3, %1
  %6 = load ptr, ptr @mem_window, align 8
  %.not5.i = icmp eq ptr %6, null
  br i1 %.not5.i, label %9, label %7

7:                                                ; preds = %5
  %8 = tail call i32 @delwin(ptr noundef nonnull %6) #25
  store ptr null, ptr @mem_window, align 8
  br label %9

9:                                                ; preds = %7, %5
  %10 = load ptr, ptr @stats_window, align 8
  %.not6.i = icmp eq ptr %10, null
  br i1 %.not6.i, label %13, label %11

11:                                               ; preds = %9
  %12 = tail call i32 @delwin(ptr noundef nonnull %10) #25
  store ptr null, ptr @stats_window, align 8
  br label %13

13:                                               ; preds = %11, %9
  %14 = load ptr, ptr @stats_head_window, align 8
  %.not7.i = icmp eq ptr %14, null
  br i1 %.not7.i, label %17, label %15

15:                                               ; preds = %13
  %16 = tail call i32 @delwin(ptr noundef nonnull %14) #25
  store ptr null, ptr @stats_head_window, align 8
  br label %17

17:                                               ; preds = %15, %13
  %18 = load ptr, ptr @status_bar_window, align 8
  %.not8.i = icmp eq ptr %18, null
  br i1 %.not8.i, label %rm_windows.exit, label %19

19:                                               ; preds = %17
  %20 = tail call i32 @delwin(ptr noundef nonnull %18) #25
  store ptr null, ptr @status_bar_window, align 8
  br label %rm_windows.exit

rm_windows.exit:                                  ; preds = %17, %19
  %21 = load ptr, ptr @stdscr, align 8
  %22 = load i32, ptr @maxx, align 4
  %23 = tail call ptr @subwin(ptr noundef %21, i32 noundef 1, i32 noundef %22, i32 noundef 0, i32 noundef 0) #25
  store ptr %23, ptr @header_window, align 8
  %24 = load ptr, ptr @stdscr, align 8
  %25 = add nsw i32 %0, 1
  %26 = load i32, ptr @maxx, align 4
  %27 = tail call ptr @subwin(ptr noundef %24, i32 noundef %25, i32 noundef %26, i32 noundef 1, i32 noundef 0) #25
  store ptr %27, ptr @stats_head_window, align 8
  %28 = load i32, ptr @maxy, align 4
  %29 = sub i32 %28, %0
  %30 = add i32 %29, -3
  store i32 %30, ptr @maxystats, align 4
  %31 = load ptr, ptr @stdscr, align 8
  %32 = load i32, ptr @maxx, align 4
  %33 = add nsw i32 %0, 2
  %34 = tail call ptr @subwin(ptr noundef %31, i32 noundef %30, i32 noundef %32, i32 noundef %33, i32 noundef 0) #25
  store ptr %34, ptr @stats_window, align 8
  %35 = load ptr, ptr @stdscr, align 8
  %36 = load i32, ptr @maxx, align 4
  %37 = load i32, ptr @maxy, align 4
  %38 = add nsw i32 %37, -1
  %39 = tail call ptr @subwin(ptr noundef %35, i32 noundef 1, i32 noundef %36, i32 noundef %38, i32 noundef 0) #25
  store ptr %39, ptr @status_bar_window, align 8
  %40 = load ptr, ptr @stats_window, align 8
  %41 = load i32, ptr @maxx, align 4
  %42 = add nsw i32 %41, -41
  %43 = tail call ptr @derwin(ptr noundef %40, i32 noundef 6, i32 noundef 41, i32 noundef 1, i32 noundef %42) #25
  store ptr %43, ptr @mem_window, align 8
  %44 = load ptr, ptr @stdscr, align 8
  %.not = icmp eq ptr %44, null
  br i1 %.not, label %50, label %45

45:                                               ; preds = %rm_windows.exit
  %46 = getelementptr inbounds i8, ptr %44, i64 4
  %47 = load i16, ptr %46, align 4
  %48 = sext i16 %47 to i32
  %49 = add nsw i32 %48, 1
  br label %50

50:                                               ; preds = %rm_windows.exit, %45
  %51 = phi i32 [ %49, %45 ], [ -1, %rm_windows.exit ]
  %52 = tail call i32 @wtouchln(ptr noundef %44, i32 noundef 0, i32 noundef %51, i32 noundef 1) #25
  %53 = load ptr, ptr @stdscr, align 8
  %54 = tail call i32 @werase(ptr noundef %53) #25
  %55 = load ptr, ptr @stdscr, align 8
  %56 = tail call i32 @wrefresh(ptr noundef %55) #25
  tail call void @llvm.memset.p0.i64(ptr noundef nonnull align 16 dereferenceable(80) getelementptr inbounds ([10 x ptr], ptr @status_bar_keys, i64 0, i64 2), i8 0, i64 64, i1 false)
  store ptr @.str.121, ptr @status_bar_keys, align 16
  store ptr @.str.122, ptr getelementptr inbounds ([10 x ptr], ptr @status_bar_keys, i64 0, i64 1), align 8
  store ptr @.str.123, ptr getelementptr inbounds ([10 x ptr], ptr @status_bar_keys, i64 0, i64 2), align 16
  %57 = icmp sgt i32 %0, 1
  br i1 %57, label %58, label %59

58:                                               ; preds = %50
  store ptr @.str.124, ptr getelementptr inbounds ([10 x ptr], ptr @status_bar_keys, i64 0, i64 3), align 8
  store ptr @.str.125, ptr getelementptr inbounds ([10 x ptr], ptr @status_bar_keys, i64 0, i64 4), align 16
  br label %59

59:                                               ; preds = %58, %50
  ret void
}